; Function Attrs: mustprogress nounwind uwtable
define dso_local noundef ptr @_ZN4llvm17JumpThreadingPass6getBFIEv(ptr nocapture noundef nonnull align 8 dereferenceable(296) %0) local_unnamed_addr #0 align 2 {
  %2 = getelementptr inbounds nuw i8, ptr %0, i64 56
  %3 = getelementptr inbounds i8, ptr %0, i64 64
  %4 = load i8, ptr %3, align 8
  %5 = trunc i8 %4 to i1
  br i1 %5, label %._crit_edge, label %6

._crit_edge:                                      ; preds = %1
  %.pre = load ptr, ptr %2, align 8
  br label %12

6:                                                ; preds = %1
  %7 = getelementptr inbounds nuw i8, ptr %0, i64 8
  %8 = load ptr, ptr %7, align 8
  %9 = load ptr, ptr %0, align 8
  %10 = tail call noundef ptr @_ZNK4llvm15AnalysisManagerINS_8FunctionEJEE19getCachedResultImplEPNS_11AnalysisKeyERS1_(ptr noundef nonnull align 8 dereferenceable(72) %8, ptr noundef nonnull @_ZN4llvm22BlockFrequencyAnalysis3KeyE, ptr noundef nonnull align 8 dereferenceable(136) %9) #19
  %.not.i = icmp eq ptr %10, null
  %11 = getelementptr inbounds nuw i8, ptr %10, i64 8
  %.0.i = select i1 %.not.i, ptr null, ptr %11
  store ptr %.0.i, ptr %2, align 8
  store i8 1, ptr %3, align 8
  br label %12

12:                                               ; preds = %._crit_edge, %6
  %13 = phi ptr [ %.pre, %._crit_edge ], [ %.0.i, %6 ]
  ret ptr %13
}